Certificate:
    Data:
        Version: 3 (0x2)
        Serial Number: 1 (0x1)
    Signature Algorithm: sha256WithRSAEncryption
        Issuer: C=RO, ST=Bucharest, L=Bucharest, O=Carplanner SRL, OU=Developing, CN=CA/emailAddress=carplannerroot@gmail.com
        Validity
            Not Before: Jun 17 20:34:35 2019 GMT
            Not After : Mar 13 20:34:35 2022 GMT
        Subject: C=RO, ST=Bucharest, L=Bucharest, O=Carplanner SRL, CN=Server
        Subject Public Key Info:
            Public Key Algorithm: rsaEncryption
                Public-Key: (2048 bit)
                Modulus:
                    00:e8:db:ba:ab:23:e9:c2:f2:a3:b6:36:06:5a:2a:
                    af:86:ea:70:18:5a:26:2a:88:c6:fb:79:ab:22:d3:
                    9a:17:4a:da:58:f1:22:76:fb:59:aa:1e:14:e3:8b:
                    1f:ce:e7:33:97:38:ef:13:0e:99:55:97:89:98:10:
                    eb:5c:93:86:94:8f:5d:7c:ee:df:c6:23:39:76:f1:
                    48:bf:26:84:32:13:14:b1:df:8e:77:be:a6:6e:d5:
                    27:b8:08:78:82:90:89:87:b5:e2:97:6c:f9:00:3f:
                    f6:1a:88:70:53:6b:e8:18:29:b6:38:33:82:a5:99:
                    cf:e2:76:96:97:a4:8c:72:67:39:1c:fe:ec:f8:85:
                    27:37:d3:d9:77:dc:d7:43:b4:b0:47:73:95:d8:44:
                    4d:04:ac:f3:9b:fc:50:b3:e7:93:6a:1c:e3:34:c8:
                    99:a5:ef:98:92:b3:fc:57:11:4d:2c:66:e2:8f:2a:
                    43:e1:d3:c9:b1:2f:a8:ba:30:80:9a:cf:eb:ce:32:
                    13:92:5e:97:d7:b5:68:0b:13:ed:87:46:52:ed:ec:
                    81:b0:6f:57:47:ba:70:9c:33:6a:79:c1:44:dc:1b:
                    07:90:42:50:1b:2c:e1:e0:94:cb:ef:05:99:96:20:
                    77:9d:49:90:8b:90:7b:85:19:7b:9b:4b:d0:ad:a6:
                    0e:65
                Exponent: 65537 (0x10001)
        X509v3 extensions:
            X509v3 Subject Key Identifier: 
                19:E2:70:C0:FA:B0:2B:1B:A3:1A:68:96:AA:24:0C:21:97:8C:6D:78
            X509v3 Authority Key Identifier: 
                keyid:AF:2F:98:53:81:2F:A5:8A:EE:38:35:65:7D:77:68:4C:DD:2D:B0:AC

            X509v3 Basic Constraints: 
                CA:FALSE
            X509v3 Key Usage: 
                Digital Signature, Key Encipherment
            X509v3 Subject Alternative Name: 
                DNS:localhost
            Netscape Comment: 
                OpenSSL Generated Certificate
    Signature Algorithm: sha256WithRSAEncryption
         4e:71:c2:3d:70:fa:08:94:d3:32:fd:1b:77:b8:ea:ab:71:02:
         e6:42:99:48:5f:bc:50:21:31:67:54:03:53:e5:85:db:f0:f1:
         47:70:dc:94:e6:21:53:88:cd:d0:47:d5:2b:25:26:b6:aa:ee:
         df:a5:a1:37:b8:18:a7:f8:f0:5b:98:b5:ce:a0:20:1f:45:46:
         af:24:2b:79:03:bb:4e:dc:75:e0:74:ad:6f:77:51:dc:56:05:
         62:4b:73:3c:20:68:98:22:06:4d:e4:02:ba:43:ad:95:ec:25:
         5b:2b:72:10:4c:60:43:40:2b:e9:26:ab:b4:0d:03:f6:d1:dc:
         df:90:d4:8f:b5:0c:0f:20:8b:ce:ec:69:e7:f7:92:a5:60:a9:
         77:df:58:2a:3a:3f:a1:db:74:31:67:45:e6:17:55:f4:7a:db:
         7b:0c:df:ba:dd:91:d5:69:c8:98:99:8a:0b:d7:23:93:a2:43:
         f8:19:6b:41:62:e4:5c:d3:89:90:ef:43:96:4c:6f:da:21:ec:
         17:06:2f:81:b5:6c:44:99:e0:64:2f:7c:77:6d:0b:c6:2d:76:
         f8:65:89:9e:6c:6e:83:9c:91:65:5b:93:76:f6:ab:4a:d1:e5:
         e0:c0:8c:29:96:75:a5:7b:da:e4:7f:6a:50:8c:09:6a:d4:78:
         15:96:52:84:e7:d9:ea:60:97:9b:7d:d8:81:86:3c:a3:56:e2:
         d3:e9:d3:51:75:32:98:d0:8d:44:43:eb:38:60:b2:b0:ec:33:
         6b:e8:67:f6:8e:c3:82:ce:f4:ef:a2:5b:f5:2c:59:9a:4d:fb:
         9c:4e:18:85:64:34:88:fb:61:e9:46:dc:be:f3:1d:5c:94:ed:
         3b:92:84:5c:13:ea:40:cf:70:5d:90:ae:59:cc:cf:33:e8:4a:
         58:8b:0b:0d:b1:e9:8f:68:d1:70:94:51:a6:e3:bc:e8:ec:c3:
         cc:e8:84:ad:50:bb:85:39:97:1b:57:12:c6:77:6a:fb:e6:85:
         43:41:fb:d2:82:ff:58:8e:3f:ff:87:75:75:ba:dc:c3:55:be:
         fa:38:35:a0:09:b3:af:91:99:34:d1:45:fa:5c:e7:cf:ea:9b:
         07:81:79:24:33:d7:fa:01:74:0f:d7:0b:1a:f6:40:56:66:22:
         1b:85:2d:d7:2a:fe:c2:a2:4a:f3:c3:bf:d2:27:18:2d:f9:01:
         dc:17:19:23:f8:0b:8a:ff:d4:06:97:4f:bc:3a:80:76:07:2c:
         43:1d:a8:b4:3c:cd:bb:c9:3c:3f:af:29:10:68:9c:e0:71:59:
         26:c1:e6:68:b4:78:a5:40:c6:a9:b8:0b:83:30:b7:89:08:21:
         05:23:fe:75:c8:4e:c0:d5
-----BEGIN CERTIFICATE-----
MIIFFDCCAvygAwIBAgIBATANBgkqhkiG9w0BAQsFADCBmTELMAkGA1UEBhMCUk8x
EjAQBgNVBAgMCUJ1Y2hhcmVzdDESMBAGA1UEBwwJQnVjaGFyZXN0MRcwFQYDVQQK
DA5DYXJwbGFubmVyIFNSTDETMBEGA1UECwwKRGV2ZWxvcGluZzELMAkGA1UEAwwC
Q0ExJzAlBgkqhkiG9w0BCQEWGGNhcnBsYW5uZXJyb290QGdtYWlsLmNvbTAeFw0x
OTA2MTcyMDM0MzVaFw0yMjAzMTMyMDM0MzVaMF8xCzAJBgNVBAYTAlJPMRIwEAYD
VQQIDAlCdWNoYXJlc3QxEjAQBgNVBAcMCUJ1Y2hhcmVzdDEXMBUGA1UECgwOQ2Fy
cGxhbm5lciBTUkwxDzANBgNVBAMMBlNlcnZlcjCCASIwDQYJKoZIhvcNAQEBBQAD
ggEPADCCAQoCggEBAOjbuqsj6cLyo7Y2Bloqr4bqcBhaJiqIxvt5qyLTmhdK2ljx
Inb7WaoeFOOLH87nM5c47xMOmVWXiZgQ61yThpSPXXzu38YjOXbxSL8mhDITFLHf
jne+pm7VJ7gIeIKQiYe14pds+QA/9hqIcFNr6BgptjgzgqWZz+J2lpekjHJnORz+
7PiFJzfT2Xfc10O0sEdzldhETQSs85v8ULPnk2oc4zTImaXvmJKz/FcRTSxm4o8q
Q+HTybEvqLowgJrP684yE5Jel9e1aAsT7YdGUu3sgbBvV0e6cJwzannBRNwbB5BC
UBss4eCUy+8FmZYgd51JkIuQe4UZe5tL0K2mDmUCAwEAAaOBnzCBnDAdBgNVHQ4E
FgQUGeJwwPqwKxujGmiWqiQMIZeMbXgwHwYDVR0jBBgwFoAUry+YU4EvpYruODVl
fXdoTN0tsKwwCQYDVR0TBAIwADALBgNVHQ8EBAMCBaAwFAYDVR0RBA0wC4IJbG9j
YWxob3N0MCwGCWCGSAGG+EIBDQQfFh1PcGVuU1NMIEdlbmVyYXRlZCBDZXJ0aWZp
Y2F0ZTANBgkqhkiG9w0BAQsFAAOCAgEATnHCPXD6CJTTMv0bd7jqq3EC5kKZSF+8
UCExZ1QDU+WF2/DxR3DclOYhU4jN0EfVKyUmtqru36WhN7gYp/jwW5i1zqAgH0VG
ryQreQO7Ttx14HStb3dR3FYFYktzPCBomCIGTeQCukOtlewlWytyEExgQ0Ar6Sar
tA0D9tHc35DUj7UMDyCLzuxp5/eSpWCpd99YKjo/odt0MWdF5hdV9Hrbewzfut2R
1WnImJmKC9cjk6JD+BlrQWLkXNOJkO9Dlkxv2iHsFwYvgbVsRJngZC98d20Lxi12
+GWJnmxug5yRZVuTdvarStHl4MCMKZZ1pXva5H9qUIwJatR4FZZShOfZ6mCXm33Y
gYY8o1bi0+nTUXUymNCNREPrOGCysOwza+hn9o7Dgs7076Jb9SxZmk37nE4YhWQ0
iPth6UbcvvMdXJTtO5KEXBPqQM9wXZCuWczPM+hKWIsLDbHpj2jRcJRRpuO86OzD
zOiErVC7hTmXG1cSxndq++aFQ0H70oL/WI4//4d1dbrcw1W++jg1oAmzr5GZNNFF
+lznz+qbB4F5JDPX+gF0D9cLGvZAVmYiG4Ut1yr+wqJK88O/0icYLfkB3BcZI/gL
iv/UBpdPvDqAdgcsQx2otDzNu8k8P68pEGic4HFZJsHmaLR4pUDGqbgLgzC3iQgh
BSP+dchOwNU=
-----END CERTIFICATE-----
