Certificate:
    Data:
        Version: 3 (0x2)
        Serial Number: 2 (0x2)
    Signature Algorithm: sha256WithRSAEncryption
        Issuer: C=RO, ST=Bucharest, L=Bucharest, O=Carplanner SRL, OU=Developing, CN=CA/emailAddress=carplannerroot@gmail.com
        Validity
            Not Before: Jun 17 22:05:43 2019 GMT
            Not After : Mar 13 22:05:43 2022 GMT
        Subject: C=RO, ST=Bucharest, L=Bucharest, O=Carplanner SRL, CN=Server
        Subject Public Key Info:
            Public Key Algorithm: rsaEncryption
                Public-Key: (2048 bit)
                Modulus:
                    00:af:08:58:26:8c:d5:f6:96:de:3b:35:18:be:1e:
                    58:c3:e0:52:bb:ad:d8:59:87:5c:13:62:dc:67:e7:
                    f7:74:01:c1:fe:f7:d1:ff:5b:23:4a:08:fc:f1:26:
                    52:f1:df:a8:20:86:d8:61:0a:0d:09:94:cc:c5:04:
                    78:93:15:b7:10:3c:b2:fe:0b:8a:ae:f7:1a:4b:c7:
                    35:7c:4b:fa:6a:42:39:6f:bc:32:27:5d:1f:f5:fe:
                    9d:e4:65:af:fa:55:69:03:28:d9:3a:90:20:de:10:
                    d5:3b:ce:96:3a:ca:03:24:3f:64:7a:a2:39:1a:3b:
                    06:74:b2:ae:69:05:34:22:88:ac:ea:8f:4b:21:31:
                    b1:43:3e:ef:cb:d3:93:68:e1:4e:a3:1a:50:ac:b4:
                    20:8d:49:77:3c:85:79:d7:12:74:8e:21:6b:df:74:
                    47:f0:29:c4:34:58:49:7f:b7:41:17:00:7c:d6:c3:
                    8f:46:61:e9:66:d5:ec:9f:04:97:e6:ae:98:a3:90:
                    d7:77:b9:83:a9:f8:9b:5d:fa:3d:a4:7b:86:00:e1:
                    bb:a1:e0:d6:0c:62:59:27:09:d2:a8:13:28:9b:d6:
                    cb:d1:ad:ee:1d:2b:cc:66:ed:c0:89:1e:7e:2e:7b:
                    47:1a:66:25:d9:ce:30:10:06:78:84:fa:65:ac:b1:
                    23:9d
                Exponent: 65537 (0x10001)
        X509v3 extensions:
            X509v3 Subject Key Identifier: 
                AE:35:8F:F7:1F:3E:79:21:69:A8:91:C0:70:44:84:1D:53:3C:3C:46
            X509v3 Authority Key Identifier: 
                keyid:AF:2F:98:53:81:2F:A5:8A:EE:38:35:65:7D:77:68:4C:DD:2D:B0:AC

            X509v3 Basic Constraints: 
                CA:FALSE
            X509v3 Key Usage: 
                Digital Signature, Key Encipherment
            X509v3 Subject Alternative Name: 
                DNS:localhost, DNS:192.168.0.179
            Netscape Comment: 
                OpenSSL Generated Certificate
    Signature Algorithm: sha256WithRSAEncryption
         a1:be:5d:01:a3:34:fd:f0:93:4a:fe:70:1b:b5:0f:7d:74:15:
         da:3a:93:fc:61:1c:bc:dd:42:7e:0d:42:9b:3c:e9:ca:34:9e:
         e9:c0:13:13:b3:39:0c:79:9c:1f:7e:82:b3:c1:0d:12:07:0c:
         ac:55:06:78:25:8e:1e:7a:ce:97:16:1a:bb:b8:a9:b0:fa:0d:
         50:c3:bb:73:af:ef:88:f2:1e:35:92:57:0e:31:9a:4f:b0:6a:
         b3:7b:6f:7a:1b:fe:5d:e0:e0:44:c4:b2:3d:58:fc:5c:1a:7a:
         5b:80:56:40:3d:e3:65:dd:c0:0f:0f:68:8f:86:89:65:b2:5c:
         81:3c:4b:0e:36:70:d7:9b:7f:6e:37:dc:1c:83:df:98:66:c8:
         7b:21:3e:86:bf:dd:c0:00:07:43:89:12:c9:7c:3c:01:29:14:
         ec:f3:ea:94:cb:97:f4:09:b9:6f:c1:87:da:9a:e9:05:7d:0c:
         cc:29:84:89:5e:44:0b:1e:df:c0:ef:4b:62:30:e7:f6:69:d1:
         ef:a5:1d:2f:da:57:36:4d:5c:52:0e:96:96:a8:52:e0:e1:86:
         a4:be:03:3f:13:cc:4d:3c:b3:56:f8:04:20:ff:9f:22:01:3a:
         e4:2a:b8:53:a3:f9:94:82:d6:74:ba:f6:96:58:29:de:6d:cd:
         70:2f:0b:4e:87:68:df:aa:28:0a:68:26:38:50:e5:ff:8c:62:
         af:a3:ba:6b:40:de:b7:50:b2:1f:cc:1d:66:0c:bd:c0:4e:85:
         ed:8d:08:8f:cc:5d:a9:ef:ec:93:53:86:72:cf:aa:db:d8:53:
         0b:61:3c:0d:83:04:18:2c:32:15:17:96:70:4b:41:5c:32:7a:
         ab:b5:03:7e:34:88:81:89:b8:52:b3:d1:19:a5:af:30:4e:b4:
         cc:12:73:bd:04:c3:af:23:33:7f:c8:66:d8:bc:a1:81:8b:2a:
         24:24:f0:5c:05:78:e1:05:62:39:95:81:4c:fd:70:55:c3:db:
         a2:27:c9:1e:b5:90:5f:7d:e3:79:d1:17:1c:4f:75:17:9a:15:
         d7:bd:80:55:40:f0:44:c1:00:fc:52:ab:14:da:3d:84:8b:20:
         70:a8:cf:35:60:de:e2:ab:3b:0f:49:5d:1d:4c:77:6a:2c:af:
         1f:10:c7:a7:7b:58:13:b9:ee:f4:5a:75:b9:ec:70:6a:f9:ae:
         dc:91:26:46:4b:1c:dc:90:54:fe:83:e6:d7:03:1e:82:df:71:
         1d:37:72:a0:c3:86:84:a3:07:0d:bb:5f:d7:91:58:02:3a:60:
         ea:a6:02:fc:bd:4d:fe:4e:3b:25:a0:f8:17:a9:a9:70:de:60:
         cb:89:ee:61:a6:72:c3:67
-----BEGIN CERTIFICATE-----
MIIFIzCCAwugAwIBAgIBAjANBgkqhkiG9w0BAQsFADCBmTELMAkGA1UEBhMCUk8x
EjAQBgNVBAgMCUJ1Y2hhcmVzdDESMBAGA1UEBwwJQnVjaGFyZXN0MRcwFQYDVQQK
DA5DYXJwbGFubmVyIFNSTDETMBEGA1UECwwKRGV2ZWxvcGluZzELMAkGA1UEAwwC
Q0ExJzAlBgkqhkiG9w0BCQEWGGNhcnBsYW5uZXJyb290QGdtYWlsLmNvbTAeFw0x
OTA2MTcyMjA1NDNaFw0yMjAzMTMyMjA1NDNaMF8xCzAJBgNVBAYTAlJPMRIwEAYD
VQQIDAlCdWNoYXJlc3QxEjAQBgNVBAcMCUJ1Y2hhcmVzdDEXMBUGA1UECgwOQ2Fy
cGxhbm5lciBTUkwxDzANBgNVBAMMBlNlcnZlcjCCASIwDQYJKoZIhvcNAQEBBQAD
ggEPADCCAQoCggEBAK8IWCaM1faW3js1GL4eWMPgUrut2FmHXBNi3Gfn93QBwf73
0f9bI0oI/PEmUvHfqCCG2GEKDQmUzMUEeJMVtxA8sv4Liq73GkvHNXxL+mpCOW+8
MiddH/X+neRlr/pVaQMo2TqQIN4Q1TvOljrKAyQ/ZHqiORo7BnSyrmkFNCKIrOqP
SyExsUM+78vTk2jhTqMaUKy0II1JdzyFedcSdI4ha990R/ApxDRYSX+3QRcAfNbD
j0Zh6WbV7J8El+aumKOQ13e5g6n4m136PaR7hgDhu6Hg1gxiWScJ0qgTKJvWy9Gt
7h0rzGbtwIkefi57RxpmJdnOMBAGeIT6ZayxI50CAwEAAaOBrjCBqzAdBgNVHQ4E
FgQUrjWP9x8+eSFpqJHAcESEHVM8PEYwHwYDVR0jBBgwFoAUry+YU4EvpYruODVl
fXdoTN0tsKwwCQYDVR0TBAIwADALBgNVHQ8EBAMCBaAwIwYDVR0RBBwwGoIJbG9j
YWxob3N0gg0xOTIuMTY4LjAuMTc5MCwGCWCGSAGG+EIBDQQfFh1PcGVuU1NMIEdl
bmVyYXRlZCBDZXJ0aWZpY2F0ZTANBgkqhkiG9w0BAQsFAAOCAgEAob5dAaM0/fCT
Sv5wG7UPfXQV2jqT/GEcvN1Cfg1CmzzpyjSe6cATE7M5DHmcH36Cs8ENEgcMrFUG
eCWOHnrOlxYau7ipsPoNUMO7c6/viPIeNZJXDjGaT7Bqs3tvehv+XeDgRMSyPVj8
XBp6W4BWQD3jZd3ADw9oj4aJZbJcgTxLDjZw15t/bjfcHIPfmGbIeyE+hr/dwAAH
Q4kSyXw8ASkU7PPqlMuX9Am5b8GH2prpBX0MzCmEiV5ECx7fwO9LYjDn9mnR76Ud
L9pXNk1cUg6WlqhS4OGGpL4DPxPMTTyzVvgEIP+fIgE65Cq4U6P5lILWdLr2llgp
3m3NcC8LTodo36ooCmgmOFDl/4xir6O6a0Det1CyH8wdZgy9wE6F7Y0Ij8xdqe/s
k1OGcs+q29hTC2E8DYMEGCwyFReWcEtBXDJ6q7UDfjSIgYm4UrPRGaWvME60zBJz
vQTDryMzf8hm2LyhgYsqJCTwXAV44QViOZWBTP1wVcPboifJHrWQX33jedEXHE91
F5oV172AVUDwRMEA/FKrFNo9hIsgcKjPNWDe4qs7D0ldHUx3aiyvHxDHp3tYE7nu
9Fp1uexwavmu3JEmRksc3JBU/oPm1wMegt9xHTdyoMOGhKMHDbtf15FYAjpg6qYC
/L1N/k47JaD4F6mpcN5gy4nuYaZyw2c=
-----END CERTIFICATE-----
