Certificate:
    Data:
        Version: 3 (0x2)
        Serial Number: 2 (0x2)
    Signature Algorithm: sha256WithRSAEncryption
        Issuer: C=RO, ST=Bucharest, L=Bucharest, O=Carplanner SRL, OU=Server Research Department, CN=Test CA/emailAddress=carplannerroot@gmail.com
        Validity
            Not Before: Mar 16 21:15:30 2020 GMT
            Not After : Dec 11 21:15:30 2022 GMT
        Subject: C=RO, ST=Bucharest, L=Bucharest, O=Home SRL, CN=localnetflix
        Subject Public Key Info:
            Public Key Algorithm: rsaEncryption
                Public-Key: (2048 bit)
                Modulus:
                    00:aa:13:19:32:89:bd:cd:dd:01:78:c9:2a:95:10:
                    8e:c8:91:9d:37:91:5b:9a:15:bb:00:ed:a1:18:9f:
                    54:01:48:bd:b5:79:3d:55:55:06:76:bf:a2:b1:15:
                    fe:95:44:d8:23:12:08:8b:56:38:7d:2b:1c:ca:71:
                    6b:5d:d1:70:9b:da:ed:5d:81:b9:16:56:f2:b9:9f:
                    07:86:32:45:33:c7:cb:c4:ce:4e:01:95:59:c5:ac:
                    d7:69:bc:53:74:a2:5d:4e:3f:d4:71:36:42:2d:06:
                    93:40:0e:46:1b:2b:7e:1b:ee:45:3d:7e:98:a9:78:
                    0e:75:76:34:0b:ae:51:c5:a8:78:68:ea:95:44:50:
                    ba:be:ec:ff:fd:43:79:30:09:5c:eb:69:70:80:12:
                    dc:ec:91:da:ab:87:f1:e0:ab:e8:38:1b:dc:78:cc:
                    81:f0:d5:78:a4:75:31:79:6b:88:8e:07:9a:ff:e1:
                    b3:0c:57:d9:eb:5b:54:a1:b3:6b:a5:19:68:59:d0:
                    6e:a1:c1:97:81:4b:82:58:1b:d1:9c:2c:fe:7f:43:
                    ce:83:cc:43:4f:f2:7b:6c:68:38:e2:26:cd:ec:d6:
                    8b:70:fe:be:25:70:19:9e:71:e5:39:41:c1:ef:fc:
                    77:23:be:5a:a0:4a:b7:9c:b5:cd:0c:01:db:08:bd:
                    e9:69
                Exponent: 65537 (0x10001)
        X509v3 extensions:
            X509v3 Subject Key Identifier: 
                A3:5F:C0:10:75:59:61:67:B7:3D:1C:72:A5:D5:BC:E3:7B:A2:1C:BD
            X509v3 Authority Key Identifier: 
                keyid:55:64:5E:F1:55:0F:6F:B2:17:10:0F:4C:75:A5:39:4E:5E:A2:E5:67

            X509v3 Basic Constraints: 
                CA:FALSE
            X509v3 Key Usage: 
                Digital Signature, Key Encipherment
            X509v3 Subject Alternative Name: 
                DNS:localnetflix
            Netscape Comment: 
                OpenSSL Generated Certificate
    Signature Algorithm: sha256WithRSAEncryption
         67:fd:a0:14:57:dd:10:ca:0f:b1:c1:9a:d5:db:6e:be:79:b0:
         b0:0c:cb:06:99:22:49:e3:3c:aa:95:7b:17:d2:b3:7a:64:88:
         9c:1b:18:75:ad:fd:7c:f0:3a:de:a1:82:2d:04:e8:17:2f:6f:
         18:3a:4c:05:e5:d6:27:1e:7e:9b:97:2b:f7:9e:4b:c9:a4:2e:
         28:2c:b9:0f:95:4f:3a:05:55:c2:ca:65:a4:a5:6c:19:29:41:
         d4:c3:80:e6:e0:de:0e:b8:fa:98:6f:b3:65:94:96:88:c6:b1:
         7a:94:fa:e3:df:1f:4c:76:5f:49:f6:74:df:69:b4:26:a4:b8:
         db:65:37:b0:b2:c8:8d:0f:cb:c4:ac:86:a9:2b:d9:04:3a:c8:
         98:4c:c0:bc:69:65:66:c7:e9:7f:5e:09:a0:1c:3e:e0:63:63:
         8e:0c:64:62:54:bb:34:82:85:6b:fc:75:78:2f:18:97:c0:bf:
         db:ab:e6:49:fb:37:9a:1e:45:cc:eb:21:e1:cf:f1:d0:f7:78:
         8a:02:87:ce:c6:2a:b8:7d:24:34:81:c7:74:13:4c:34:b9:30:
         60:28:fb:91:ba:31:1b:17:75:0d:52:b0:88:33:a9:38:f6:fd:
         82:02:aa:23:ef:15:f0:19:c1:81:e6:e4:62:3b:f3:f8:a9:71:
         eb:02:75:30:c7:c9:8a:41:a1:5c:ba:b4:56:d4:7f:08:60:cc:
         82:75:4d:b4:f5:d5:a6:9f:65:83:30:25:4f:8f:e7:6f:13:ca:
         86:10:2b:03:0a:b6:86:35:6f:9c:bf:70:d6:d4:b5:3f:b4:23:
         13:62:a7:5f:90:7e:f4:5d:26:c6:88:23:85:3f:fc:f7:a0:74:
         3d:10:90:0e:39:fe:90:44:7c:78:ca:55:f8:d1:83:14:26:37:
         ed:37:9f:38:28:6f:a2:4e:4c:1b:09:fb:22:4f:bd:d1:db:68:
         0a:0c:80:5a:cd:5d:0a:79:66:8d:ce:4d:53:8f:88:a4:5f:e8:
         f0:7e:41:09:d3:5e:56:8c:03:33:8f:a1:e7:c0:46:7e:fc:4b:
         97:0e:17:41:a8:07:f8:e8:87:c8:ab:f9:74:9c:92:44:d3:e3:
         da:f3:f5:c8:7c:f7:4f:16:93:f9:1c:33:34:c7:e7:e7:aa:a7:
         1c:d8:c2:10:40:2e:fc:ed:a5:e6:a4:50:06:0e:45:22:af:08:
         8f:95:b9:c0:5a:b5:91:53:02:e6:51:c1:de:7b:67:aa:b7:07:
         24:ef:37:b2:4c:ce:38:26:6c:cf:50:b3:0d:66:a2:ff:93:ef:
         0e:7d:df:65:7e:18:e3:d5:a2:76:a6:4c:27:80:34:25:73:e9:
         16:ea:14:d2:93:61:93:9a
-----BEGIN CERTIFICATE-----
MIIFLDCCAxSgAwIBAgIBAjANBgkqhkiG9w0BAQsFADCBrjELMAkGA1UEBhMCUk8x
EjAQBgNVBAgMCUJ1Y2hhcmVzdDESMBAGA1UEBwwJQnVjaGFyZXN0MRcwFQYDVQQK
DA5DYXJwbGFubmVyIFNSTDEjMCEGA1UECwwaU2VydmVyIFJlc2VhcmNoIERlcGFy
dG1lbnQxEDAOBgNVBAMMB1Rlc3QgQ0ExJzAlBgkqhkiG9w0BCQEWGGNhcnBsYW5u
ZXJyb290QGdtYWlsLmNvbTAeFw0yMDAzMTYyMTE1MzBaFw0yMjEyMTEyMTE1MzBa
MF8xCzAJBgNVBAYTAlJPMRIwEAYDVQQIDAlCdWNoYXJlc3QxEjAQBgNVBAcMCUJ1
Y2hhcmVzdDERMA8GA1UECgwISG9tZSBTUkwxFTATBgNVBAMMDGxvY2FsbmV0Zmxp
eDCCASIwDQYJKoZIhvcNAQEBBQADggEPADCCAQoCggEBAKoTGTKJvc3dAXjJKpUQ
jsiRnTeRW5oVuwDtoRifVAFIvbV5PVVVBna/orEV/pVE2CMSCItWOH0rHMpxa13R
cJva7V2BuRZW8rmfB4YyRTPHy8TOTgGVWcWs12m8U3SiXU4/1HE2Qi0Gk0AORhsr
fhvuRT1+mKl4DnV2NAuuUcWoeGjqlURQur7s//1DeTAJXOtpcIAS3OyR2quH8eCr
6Dgb3HjMgfDVeKR1MXlriI4Hmv/hswxX2etbVKGza6UZaFnQbqHBl4FLglgb0Zws
/n9DzoPMQ0/ye2xoOOImzezWi3D+viVwGZ5x5TlBwe/8dyO+WqBKt5y1zQwB2wi9
6WkCAwEAAaOBojCBnzAdBgNVHQ4EFgQUo1/AEHVZYWe3PRxypdW843uiHL0wHwYD
VR0jBBgwFoAUVWRe8VUPb7IXEA9MdaU5Tl6i5WcwCQYDVR0TBAIwADALBgNVHQ8E
BAMCBaAwFwYDVR0RBBAwDoIMbG9jYWxuZXRmbGl4MCwGCWCGSAGG+EIBDQQfFh1P
cGVuU1NMIEdlbmVyYXRlZCBDZXJ0aWZpY2F0ZTANBgkqhkiG9w0BAQsFAAOCAgEA
Z/2gFFfdEMoPscGa1dtuvnmwsAzLBpkiSeM8qpV7F9KzemSInBsYda39fPA63qGC
LQToFy9vGDpMBeXWJx5+m5cr955LyaQuKCy5D5VPOgVVwsplpKVsGSlB1MOA5uDe
Drj6mG+zZZSWiMaxepT6498fTHZfSfZ032m0JqS422U3sLLIjQ/LxKyGqSvZBDrI
mEzAvGllZsfpf14JoBw+4GNjjgxkYlS7NIKFa/x1eC8Yl8C/26vmSfs3mh5FzOsh
4c/x0Pd4igKHzsYquH0kNIHHdBNMNLkwYCj7kboxGxd1DVKwiDOpOPb9ggKqI+8V
8BnBgebkYjvz+Klx6wJ1MMfJikGhXLq0VtR/CGDMgnVNtPXVpp9lgzAlT4/nbxPK
hhArAwq2hjVvnL9w1tS1P7QjE2KnX5B+9F0mxogjhT/896B0PRCQDjn+kER8eMpV
+NGDFCY37TefOChvok5MGwn7Ik+90dtoCgyAWs1dCnlmjc5NU4+IpF/o8H5BCdNe
VowDM4+h58BGfvxLlw4XQagH+OiHyKv5dJySRNPj2vP1yHz3TxaT+RwzNMfn56qn
HNjCEEAu/O2l5qRQBg5FIq8Ij5W5wFq1kVMC5lHB3ntnqrcHJO83skzOOCZsz1Cz
DWai/5PvDn3fZX4Y49WidqZMJ4A0JXPpFuoU0pNhk5o=
-----END CERTIFICATE-----
