Certificate:
    Data:
        Version: 3 (0x2)
        Serial Number: 3 (0x3)
    Signature Algorithm: sha256WithRSAEncryption
        Issuer: C=RO, ST=Bucharest, L=Bucharest, O=Carplanner SRL, OU=Developing, CN=CA/emailAddress=carplannerroot@gmail.com
        Validity
            Not Before: Jun 17 22:23:47 2019 GMT
            Not After : Mar 13 22:23:47 2022 GMT
        Subject: C=RO, ST=Bucharest, L=Bucharest, O=Carplanner SRL, CN=Server
        Subject Public Key Info:
            Public Key Algorithm: rsaEncryption
                Public-Key: (2048 bit)
                Modulus:
                    00:af:08:58:26:8c:d5:f6:96:de:3b:35:18:be:1e:
                    58:c3:e0:52:bb:ad:d8:59:87:5c:13:62:dc:67:e7:
                    f7:74:01:c1:fe:f7:d1:ff:5b:23:4a:08:fc:f1:26:
                    52:f1:df:a8:20:86:d8:61:0a:0d:09:94:cc:c5:04:
                    78:93:15:b7:10:3c:b2:fe:0b:8a:ae:f7:1a:4b:c7:
                    35:7c:4b:fa:6a:42:39:6f:bc:32:27:5d:1f:f5:fe:
                    9d:e4:65:af:fa:55:69:03:28:d9:3a:90:20:de:10:
                    d5:3b:ce:96:3a:ca:03:24:3f:64:7a:a2:39:1a:3b:
                    06:74:b2:ae:69:05:34:22:88:ac:ea:8f:4b:21:31:
                    b1:43:3e:ef:cb:d3:93:68:e1:4e:a3:1a:50:ac:b4:
                    20:8d:49:77:3c:85:79:d7:12:74:8e:21:6b:df:74:
                    47:f0:29:c4:34:58:49:7f:b7:41:17:00:7c:d6:c3:
                    8f:46:61:e9:66:d5:ec:9f:04:97:e6:ae:98:a3:90:
                    d7:77:b9:83:a9:f8:9b:5d:fa:3d:a4:7b:86:00:e1:
                    bb:a1:e0:d6:0c:62:59:27:09:d2:a8:13:28:9b:d6:
                    cb:d1:ad:ee:1d:2b:cc:66:ed:c0:89:1e:7e:2e:7b:
                    47:1a:66:25:d9:ce:30:10:06:78:84:fa:65:ac:b1:
                    23:9d
                Exponent: 65537 (0x10001)
        X509v3 extensions:
            X509v3 Subject Key Identifier: 
                AE:35:8F:F7:1F:3E:79:21:69:A8:91:C0:70:44:84:1D:53:3C:3C:46
            X509v3 Authority Key Identifier: 
                keyid:AF:2F:98:53:81:2F:A5:8A:EE:38:35:65:7D:77:68:4C:DD:2D:B0:AC

            X509v3 Basic Constraints: 
                CA:FALSE
            X509v3 Key Usage: 
                Digital Signature, Key Encipherment
            X509v3 Subject Alternative Name: 
                DNS:localhost, DNS:192.168.0.179
            Netscape Comment: 
                OpenSSL Generated Certificate
    Signature Algorithm: sha256WithRSAEncryption
         7e:b8:61:0c:21:07:18:ef:98:c6:4c:14:00:74:4f:9d:f3:f6:
         ff:e9:ae:ee:7b:a8:02:2d:30:9a:af:78:bb:64:8a:bd:54:8e:
         94:14:8e:14:ed:78:de:08:bb:28:a5:79:01:b4:4a:0f:91:3d:
         87:40:48:71:9f:70:53:1d:91:64:ae:46:33:8f:9a:ea:d1:63:
         c9:d9:53:8b:9a:3a:40:61:c3:aa:e3:00:0e:d5:15:fe:e0:e1:
         7a:0d:7f:4e:ce:f6:95:49:de:69:80:05:65:b6:e5:46:0c:8a:
         6f:63:87:55:dd:c6:8a:fd:71:5a:89:c9:49:1d:ac:62:0c:1f:
         82:ff:82:c1:72:e9:51:ca:c4:71:f1:cd:95:c0:e1:66:cc:9e:
         36:9b:ff:e9:82:39:c6:a0:6b:78:02:2a:06:0c:41:ac:95:78:
         00:c2:66:f5:ba:e3:6a:7c:12:e9:ba:fe:ac:22:4a:85:e8:fb:
         d9:96:ed:ce:3d:bc:46:ca:38:3e:36:ac:cb:2f:51:71:3d:19:
         1e:20:7e:43:15:cf:98:c2:d6:95:55:54:9a:5d:23:20:95:f2:
         d9:3c:27:21:ac:6f:f4:25:9a:c2:b7:f4:c8:98:a0:65:51:07:
         c6:6d:82:94:cf:10:92:2f:dc:df:d1:65:81:dc:12:43:37:8a:
         f4:47:1a:37:cb:50:07:94:42:16:bd:5b:3a:3d:f2:cd:64:a7:
         2e:b6:2c:ff:15:4e:31:61:0f:ac:89:a8:53:49:48:04:2a:14:
         03:9d:f1:c0:16:8f:1f:a6:3c:ae:46:cb:c3:25:34:ed:4a:bb:
         b4:70:c7:28:44:f9:84:74:9f:96:cb:66:d3:10:75:b2:23:c9:
         7d:d7:da:85:af:35:96:e5:06:ba:a7:b2:84:22:50:4a:12:93:
         a2:8d:f1:b4:d2:53:47:c5:39:dc:da:d1:19:dc:74:e8:3e:40:
         71:a5:f9:77:e4:ff:52:fe:b6:18:be:12:cb:4b:b7:2d:43:9c:
         1a:bb:e8:aa:2f:00:41:54:3b:06:5a:41:41:2d:52:13:d6:db:
         d6:eb:08:2f:9e:d9:94:43:ca:c6:32:26:b5:b3:fc:bc:d2:08:
         2b:dc:da:5b:c4:60:eb:af:cf:9e:9c:23:23:ae:1a:14:08:9c:
         b1:b5:a6:a4:19:0f:ca:a0:c3:f5:be:79:25:e4:c1:18:4d:a2:
         d2:74:1a:93:8c:fb:47:27:7e:9c:a3:4d:be:b4:6a:95:1e:99:
         0f:2c:67:6f:a5:6c:10:34:43:6f:6c:71:93:79:af:73:d8:9c:
         5a:a4:58:fd:a2:09:55:a7:f0:a4:d7:b9:57:e6:9e:65:5c:1d:
         58:2e:e0:8c:03:be:50:03
-----BEGIN CERTIFICATE-----
MIIFIzCCAwugAwIBAgIBAzANBgkqhkiG9w0BAQsFADCBmTELMAkGA1UEBhMCUk8x
EjAQBgNVBAgMCUJ1Y2hhcmVzdDESMBAGA1UEBwwJQnVjaGFyZXN0MRcwFQYDVQQK
DA5DYXJwbGFubmVyIFNSTDETMBEGA1UECwwKRGV2ZWxvcGluZzELMAkGA1UEAwwC
Q0ExJzAlBgkqhkiG9w0BCQEWGGNhcnBsYW5uZXJyb290QGdtYWlsLmNvbTAeFw0x
OTA2MTcyMjIzNDdaFw0yMjAzMTMyMjIzNDdaMF8xCzAJBgNVBAYTAlJPMRIwEAYD
VQQIDAlCdWNoYXJlc3QxEjAQBgNVBAcMCUJ1Y2hhcmVzdDEXMBUGA1UECgwOQ2Fy
cGxhbm5lciBTUkwxDzANBgNVBAMMBlNlcnZlcjCCASIwDQYJKoZIhvcNAQEBBQAD
ggEPADCCAQoCggEBAK8IWCaM1faW3js1GL4eWMPgUrut2FmHXBNi3Gfn93QBwf73
0f9bI0oI/PEmUvHfqCCG2GEKDQmUzMUEeJMVtxA8sv4Liq73GkvHNXxL+mpCOW+8
MiddH/X+neRlr/pVaQMo2TqQIN4Q1TvOljrKAyQ/ZHqiORo7BnSyrmkFNCKIrOqP
SyExsUM+78vTk2jhTqMaUKy0II1JdzyFedcSdI4ha990R/ApxDRYSX+3QRcAfNbD
j0Zh6WbV7J8El+aumKOQ13e5g6n4m136PaR7hgDhu6Hg1gxiWScJ0qgTKJvWy9Gt
7h0rzGbtwIkefi57RxpmJdnOMBAGeIT6ZayxI50CAwEAAaOBrjCBqzAdBgNVHQ4E
FgQUrjWP9x8+eSFpqJHAcESEHVM8PEYwHwYDVR0jBBgwFoAUry+YU4EvpYruODVl
fXdoTN0tsKwwCQYDVR0TBAIwADALBgNVHQ8EBAMCBaAwIwYDVR0RBBwwGoIJbG9j
YWxob3N0gg0xOTIuMTY4LjAuMTc5MCwGCWCGSAGG+EIBDQQfFh1PcGVuU1NMIEdl
bmVyYXRlZCBDZXJ0aWZpY2F0ZTANBgkqhkiG9w0BAQsFAAOCAgEAfrhhDCEHGO+Y
xkwUAHRPnfP2/+mu7nuoAi0wmq94u2SKvVSOlBSOFO143gi7KKV5AbRKD5E9h0BI
cZ9wUx2RZK5GM4+a6tFjydlTi5o6QGHDquMADtUV/uDheg1/Ts72lUneaYAFZbbl
RgyKb2OHVd3Giv1xWonJSR2sYgwfgv+CwXLpUcrEcfHNlcDhZsyeNpv/6YI5xqBr
eAIqBgxBrJV4AMJm9brjanwS6br+rCJKhej72Zbtzj28Rso4Pjasyy9RcT0ZHiB+
QxXPmMLWlVVUml0jIJXy2TwnIaxv9CWawrf0yJigZVEHxm2ClM8Qki/c39FlgdwS
QzeK9EcaN8tQB5RCFr1bOj3yzWSnLrYs/xVOMWEPrImoU0lIBCoUA53xwBaPH6Y8
rkbLwyU07Uq7tHDHKET5hHSflstm0xB1siPJfdfaha81luUGuqeyhCJQShKToo3x
tNJTR8U53NrRGdx06D5AcaX5d+T/Uv62GL4Sy0u3LUOcGrvoqi8AQVQ7BlpBQS1S
E9bb1usIL57ZlEPKxjImtbP8vNIIK9zaW8Rg66/PnpwjI64aFAicsbWmpBkPyqDD
9b55JeTBGE2i0nQak4z7Ryd+nKNNvrRqlR6ZDyxnb6VsEDRDb2xxk3mvc9icWqRY
/aIJVafwpNe5V+aeZVwdWC7gjAO+UAM=
-----END CERTIFICATE-----
