Certificate:
    Data:
        Version: 3 (0x2)
        Serial Number: 4 (0x4)
    Signature Algorithm: sha256WithRSAEncryption
        Issuer: C=RO, ST=Bucharest, L=Bucharest, O=Carplanner SRL, OU=Developing, CN=CA/emailAddress=carplannerroot@gmail.com
        Validity
            Not Before: Jun 17 22:24:40 2019 GMT
            Not After : Mar 13 22:24:40 2022 GMT
        Subject: C=RO, ST=Bucharest, L=Bucharest, O=Carplanner SRL, CN=192.168.0.179
        Subject Public Key Info:
            Public Key Algorithm: rsaEncryption
                Public-Key: (2048 bit)
                Modulus:
                    00:d9:16:30:2c:15:d6:e0:37:2b:0f:7f:76:60:10:
                    9a:64:c1:36:5f:7f:99:d1:3d:af:b2:6b:eb:83:d2:
                    52:72:1c:61:51:1d:4d:58:b4:50:51:47:50:81:da:
                    f6:cb:59:b1:46:3d:7f:cc:7d:72:96:27:85:84:e0:
                    1c:04:19:4b:93:08:89:a6:07:13:21:e9:84:3f:3b:
                    64:94:28:24:ba:04:ca:e9:10:ad:1f:08:5e:e0:c1:
                    eb:9e:d4:f8:a8:15:6f:ed:60:e3:56:19:c5:5b:c3:
                    7c:d7:c2:42:5f:87:93:ff:33:8c:69:30:15:14:7b:
                    3c:76:c7:c6:f6:a8:d7:f0:68:45:4b:d0:7f:30:b2:
                    b2:41:83:55:c8:7b:6f:9e:f9:5e:92:17:be:95:74:
                    ff:24:0d:0a:99:71:62:8f:c6:69:c2:3d:ee:cc:be:
                    fa:82:a5:41:52:35:ee:00:2e:02:af:cd:2c:18:aa:
                    6e:27:da:78:21:a0:a9:c2:5c:cc:ff:c1:29:71:fd:
                    23:16:d0:a3:a8:12:83:dd:e4:17:60:ca:33:d6:cb:
                    fc:a0:85:fa:3a:d4:af:01:e4:14:b4:45:0c:ce:8d:
                    19:a1:bf:6c:4b:e7:ea:ee:b0:9e:0b:23:a2:7b:29:
                    2f:44:b5:ac:bc:5d:22:49:ca:6c:12:a5:be:da:94:
                    8f:1d
                Exponent: 65537 (0x10001)
        X509v3 extensions:
            X509v3 Subject Key Identifier: 
                A4:5B:C5:7A:C3:A7:FF:A0:38:22:F6:61:FE:8E:52:FC:C9:69:04:3B
            X509v3 Authority Key Identifier: 
                keyid:AF:2F:98:53:81:2F:A5:8A:EE:38:35:65:7D:77:68:4C:DD:2D:B0:AC

            X509v3 Basic Constraints: 
                CA:FALSE
            X509v3 Key Usage: 
                Digital Signature, Key Encipherment
            X509v3 Subject Alternative Name: 
                DNS:localhost, DNS:192.168.0.179
            Netscape Comment: 
                OpenSSL Generated Certificate
    Signature Algorithm: sha256WithRSAEncryption
         61:3b:0f:5b:ad:56:4f:e3:64:6c:fc:ce:1c:37:82:d9:65:86:
         cb:94:6d:ce:b7:47:4c:1c:c4:d1:d3:80:2a:37:e6:e3:9a:08:
         4b:21:89:9d:da:70:76:ff:47:32:96:e4:e7:18:c3:dd:7e:d5:
         2a:6f:d6:f3:6b:f2:71:46:f6:1f:b6:c7:c3:6d:78:71:03:29:
         6c:ac:9f:bb:a3:e1:64:90:47:cc:55:ce:77:09:72:72:89:3c:
         85:36:39:80:58:7e:2c:7f:48:bd:b8:7f:a2:a4:94:58:e2:a2:
         95:a5:de:01:68:a4:73:30:94:fb:bc:56:55:e1:f8:1a:93:c6:
         41:3b:23:e6:7e:3a:1f:8d:2b:fa:f2:b3:b5:23:ba:a1:0c:4f:
         fa:9b:c0:ba:e7:6a:08:7e:5b:c5:98:f7:00:95:e8:31:bd:2a:
         dc:20:db:e7:80:fd:ec:29:0c:2e:1c:b1:20:8d:61:56:90:5f:
         a1:0f:72:d7:31:af:bb:73:9b:30:ba:33:08:6e:cb:c0:18:d2:
         95:98:ef:7a:cd:a5:e2:8f:1a:7c:b0:bb:c0:df:79:58:c4:6c:
         24:a8:d0:12:52:59:4d:15:12:18:a3:aa:15:ef:96:e8:a5:f0:
         da:86:26:67:6d:ff:b1:f9:a8:b7:8d:25:d3:d7:6c:92:6d:59:
         be:35:30:c5:4b:f3:dc:c9:1f:fb:69:3a:74:a3:46:4f:ad:6c:
         2c:47:ea:10:e2:8e:70:20:ba:20:1d:00:5c:c5:d6:5c:b0:34:
         5c:e0:46:d7:0c:47:b0:1b:54:1d:1c:42:7b:d0:ed:03:2c:a6:
         8f:f0:c3:b0:a8:94:3b:da:a6:cc:52:68:0f:96:a1:b7:73:3e:
         6c:ed:29:ca:7a:78:d3:c4:79:9d:6c:6b:a6:09:b1:00:dc:50:
         5a:a8:9e:e2:6d:41:91:17:80:32:f2:60:d5:42:8e:3a:7c:6c:
         e0:f0:13:44:c6:e0:00:09:26:44:dc:e5:37:85:c8:c0:c1:c7:
         20:f1:20:4f:8a:51:65:e3:16:55:89:78:bc:5b:d3:a3:18:31:
         e8:ea:5e:c2:0c:25:74:db:90:06:64:78:0b:04:df:c3:1c:96:
         67:31:eb:af:15:9a:63:ef:84:df:90:69:1a:20:11:dc:4f:46:
         25:6e:71:57:30:4d:89:91:f3:2c:53:39:bb:36:10:44:74:1a:
         0f:93:0b:7b:06:0c:bd:1c:00:06:80:da:7a:84:a9:99:ae:15:
         73:f7:38:97:87:b0:a7:c8:99:59:d6:d8:68:56:b7:3b:de:d6:
         7c:5d:ba:37:ea:28:b8:6d:28:ec:d5:92:09:bb:df:15:07:b1:
         ca:f1:7a:28:82:94:b7:a2
-----BEGIN CERTIFICATE-----
MIIFKjCCAxKgAwIBAgIBBDANBgkqhkiG9w0BAQsFADCBmTELMAkGA1UEBhMCUk8x
EjAQBgNVBAgMCUJ1Y2hhcmVzdDESMBAGA1UEBwwJQnVjaGFyZXN0MRcwFQYDVQQK
DA5DYXJwbGFubmVyIFNSTDETMBEGA1UECwwKRGV2ZWxvcGluZzELMAkGA1UEAwwC
Q0ExJzAlBgkqhkiG9w0BCQEWGGNhcnBsYW5uZXJyb290QGdtYWlsLmNvbTAeFw0x
OTA2MTcyMjI0NDBaFw0yMjAzMTMyMjI0NDBaMGYxCzAJBgNVBAYTAlJPMRIwEAYD
VQQIDAlCdWNoYXJlc3QxEjAQBgNVBAcMCUJ1Y2hhcmVzdDEXMBUGA1UECgwOQ2Fy
cGxhbm5lciBTUkwxFjAUBgNVBAMMDTE5Mi4xNjguMC4xNzkwggEiMA0GCSqGSIb3
DQEBAQUAA4IBDwAwggEKAoIBAQDZFjAsFdbgNysPf3ZgEJpkwTZff5nRPa+ya+uD
0lJyHGFRHU1YtFBRR1CB2vbLWbFGPX/MfXKWJ4WE4BwEGUuTCImmBxMh6YQ/O2SU
KCS6BMrpEK0fCF7gweue1PioFW/tYONWGcVbw3zXwkJfh5P/M4xpMBUUezx2x8b2
qNfwaEVL0H8wsrJBg1XIe2+e+V6SF76VdP8kDQqZcWKPxmnCPe7MvvqCpUFSNe4A
LgKvzSwYqm4n2nghoKnCXMz/wSlx/SMW0KOoEoPd5BdgyjPWy/yghfo61K8B5BS0
RQzOjRmhv2xL5+rusJ4LI6J7KS9Etay8XSJJymwSpb7alI8dAgMBAAGjga4wgasw
HQYDVR0OBBYEFKRbxXrDp/+gOCL2Yf6OUvzJaQQ7MB8GA1UdIwQYMBaAFK8vmFOB
L6WK7jg1ZX13aEzdLbCsMAkGA1UdEwQCMAAwCwYDVR0PBAQDAgWgMCMGA1UdEQQc
MBqCCWxvY2FsaG9zdIINMTkyLjE2OC4wLjE3OTAsBglghkgBhvhCAQ0EHxYdT3Bl
blNTTCBHZW5lcmF0ZWQgQ2VydGlmaWNhdGUwDQYJKoZIhvcNAQELBQADggIBAGE7
D1utVk/jZGz8zhw3gtllhsuUbc63R0wcxNHTgCo35uOaCEshiZ3acHb/RzKW5OcY
w91+1Spv1vNr8nFG9h+2x8NteHEDKWysn7uj4WSQR8xVzncJcnKJPIU2OYBYfix/
SL24f6KklFjiopWl3gFopHMwlPu8VlXh+BqTxkE7I+Z+Oh+NK/rys7UjuqEMT/qb
wLrnagh+W8WY9wCV6DG9Ktwg2+eA/ewpDC4csSCNYVaQX6EPctcxr7tzmzC6Mwhu
y8AY0pWY73rNpeKPGnywu8DfeVjEbCSo0BJSWU0VEhijqhXvluil8NqGJmdt/7H5
qLeNJdPXbJJtWb41MMVL89zJH/tpOnSjRk+tbCxH6hDijnAguiAdAFzF1lywNFzg
RtcMR7AbVB0cQnvQ7QMspo/ww7ColDvapsxSaA+WobdzPmztKcp6eNPEeZ1sa6YJ
sQDcUFqonuJtQZEXgDLyYNVCjjp8bODwE0TG4AAJJkTc5TeFyMDBxyDxIE+KUWXj
FlWJeLxb06MYMejqXsIMJXTbkAZkeAsE38Mclmcx668VmmPvhN+QaRogEdxPRiVu
cVcwTYmR8yxTObs2EER0Gg+TC3sGDL0cAAaA2nqEqZmuFXP3OJeHsKfImVnW2GhW
tzve1nxdujfqKLhtKOzVkgm73xUHscrxeiiClLei
-----END CERTIFICATE-----
