Certificate:
    Data:
        Version: 3 (0x2)
        Serial Number: 5 (0x5)
    Signature Algorithm: sha256WithRSAEncryption
        Issuer: C=RO, ST=Bucharest, L=Bucharest, O=Carplanner SRL, OU=Developing, CN=CA/emailAddress=carplannerroot@gmail.com
        Validity
            Not Before: Jun 17 22:34:40 2019 GMT
            Not After : Mar 13 22:34:40 2022 GMT
        Subject: C=RO, ST=Bucharest, L=Bucharest, O=Carplanner SRL, CN=carplanner.ro
        Subject Public Key Info:
            Public Key Algorithm: rsaEncryption
                Public-Key: (2048 bit)
                Modulus:
                    00:bf:cc:53:32:ad:83:c2:0d:27:6c:de:ba:1a:d5:
                    13:d9:3b:05:68:40:f6:0d:6f:7f:5a:b2:2f:57:96:
                    87:52:7a:7e:57:5b:58:2c:fd:9a:6f:55:eb:92:47:
                    74:27:09:68:61:a6:06:7a:70:ac:27:6d:4c:4d:ef:
                    4d:ef:1f:56:fd:b7:22:21:50:ba:8b:9a:d2:5b:0b:
                    88:2e:54:85:59:3b:13:ff:f1:a0:11:c4:16:35:2b:
                    f4:9d:bd:6f:74:3e:a6:b1:0e:28:68:f2:63:5b:ea:
                    92:d6:9d:7c:8b:de:62:14:d8:1b:c1:35:4c:1d:e8:
                    31:80:1e:7a:f6:a1:0e:3d:e2:c5:65:82:32:52:ef:
                    d7:da:dc:02:80:0c:f3:fa:57:21:01:2b:03:f1:dd:
                    39:bc:71:4b:27:a2:f2:2b:91:47:86:15:ac:28:47:
                    b3:8b:41:a4:14:ad:01:f6:00:ca:d4:60:36:ab:35:
                    de:52:ad:31:ae:2c:50:aa:e5:aa:4c:2a:a9:4d:e9:
                    96:ba:9a:83:a0:ba:7f:c8:a2:7c:62:7e:eb:a3:92:
                    41:0c:b8:02:63:96:0f:73:ef:84:69:8a:fa:89:89:
                    28:86:3d:1d:3f:6d:3c:51:9d:95:1c:8a:ff:ec:1a:
                    88:fa:d2:35:d4:3f:28:23:29:c4:ff:1d:63:f7:9b:
                    9f:2f
                Exponent: 65537 (0x10001)
        X509v3 extensions:
            X509v3 Subject Key Identifier: 
                E3:D0:D2:80:F1:8B:25:12:EB:26:1D:25:04:05:D3:B0:FE:0C:92:69
            X509v3 Authority Key Identifier: 
                keyid:AF:2F:98:53:81:2F:A5:8A:EE:38:35:65:7D:77:68:4C:DD:2D:B0:AC

            X509v3 Basic Constraints: 
                CA:FALSE
            X509v3 Key Usage: 
                Digital Signature, Key Encipherment
            X509v3 Subject Alternative Name: 
                DNS:localhost, DNS:carplanner.ro
            Netscape Comment: 
                OpenSSL Generated Certificate
    Signature Algorithm: sha256WithRSAEncryption
         52:57:15:3a:73:43:a1:9d:ba:16:02:c4:f0:24:54:17:45:50:
         bb:d8:71:31:2c:3d:1a:ee:ad:d9:d5:76:91:e7:9a:7d:f8:e3:
         c8:85:ee:67:02:d1:0e:d7:d6:23:ff:99:18:ba:8f:f9:27:c6:
         b0:e8:ed:c2:f5:f8:d1:19:81:71:0e:a5:66:69:16:cd:e8:3d:
         f3:63:21:70:14:8a:23:ef:80:03:ec:00:54:13:0c:9d:bc:5b:
         09:56:56:d5:5b:8b:81:7a:fc:be:47:85:8c:12:f9:4a:c0:f5:
         52:b3:54:7f:93:ed:1e:5b:d4:fa:1b:3f:26:81:50:12:96:38:
         40:63:59:fc:80:b8:c2:e3:2e:d0:29:6e:4a:f5:7d:e1:61:b1:
         86:67:f2:1b:e8:28:bb:40:4c:5a:01:f6:76:37:a9:16:ad:57:
         a2:95:be:5d:aa:60:79:7d:60:c6:a4:dd:b4:be:68:56:24:4a:
         6c:7b:8e:11:4d:95:34:c3:7f:bf:f8:7f:34:a1:6f:21:5f:da:
         f6:34:94:d7:47:60:39:3b:a7:aa:2f:5d:c8:85:6a:c0:95:3f:
         a1:8b:06:df:36:f8:0e:45:7f:c3:05:9c:ed:1c:c2:f9:cc:8a:
         df:48:0a:02:38:9c:8f:78:5d:bb:d6:5f:cf:fc:1e:0d:f2:6f:
         f5:fb:ec:34:1a:72:2f:af:6b:83:fa:61:50:60:3d:81:29:a2:
         36:9e:1f:de:15:8a:36:8a:a5:f7:e0:44:72:08:d4:83:72:ac:
         38:aa:09:0d:2d:57:76:5a:1e:b2:ef:9a:0d:fd:7d:b8:3a:0c:
         e5:a0:b3:e5:05:1b:78:05:fb:c5:fc:87:d9:f9:30:e6:14:0d:
         6d:0c:85:33:72:02:ea:13:fc:b4:b2:ee:86:03:aa:a8:83:24:
         2c:ab:b3:b3:b9:0e:2d:1d:56:a1:64:19:23:d8:68:76:28:a2:
         f6:14:65:9c:2a:55:8b:57:ac:61:a5:9e:30:bd:19:9c:60:a0:
         d7:c2:85:7a:c5:30:b3:e3:c9:4d:53:1d:18:25:be:30:7f:4b:
         aa:49:94:92:a5:05:50:16:fd:75:aa:34:30:23:93:9e:7c:ff:
         a6:d3:41:86:e7:42:a4:9b:c0:ec:10:57:09:7f:d4:06:70:4e:
         b7:3b:86:09:86:50:af:55:df:5c:46:37:c0:f7:75:4f:f4:65:
         54:0d:02:5c:f5:5d:81:58:93:cc:d2:5c:4b:ef:94:62:10:6a:
         66:3e:37:fe:d3:8f:e7:f2:4a:94:06:fc:87:c6:cf:29:85:26:
         16:b8:47:54:50:03:3b:6b:56:04:7d:db:4d:b8:0f:dc:a6:f8:
         cc:15:46:75:c5:7d:c1:a2
-----BEGIN CERTIFICATE-----
MIIFKjCCAxKgAwIBAgIBBTANBgkqhkiG9w0BAQsFADCBmTELMAkGA1UEBhMCUk8x
EjAQBgNVBAgMCUJ1Y2hhcmVzdDESMBAGA1UEBwwJQnVjaGFyZXN0MRcwFQYDVQQK
DA5DYXJwbGFubmVyIFNSTDETMBEGA1UECwwKRGV2ZWxvcGluZzELMAkGA1UEAwwC
Q0ExJzAlBgkqhkiG9w0BCQEWGGNhcnBsYW5uZXJyb290QGdtYWlsLmNvbTAeFw0x
OTA2MTcyMjM0NDBaFw0yMjAzMTMyMjM0NDBaMGYxCzAJBgNVBAYTAlJPMRIwEAYD
VQQIDAlCdWNoYXJlc3QxEjAQBgNVBAcMCUJ1Y2hhcmVzdDEXMBUGA1UECgwOQ2Fy
cGxhbm5lciBTUkwxFjAUBgNVBAMMDWNhcnBsYW5uZXIucm8wggEiMA0GCSqGSIb3
DQEBAQUAA4IBDwAwggEKAoIBAQC/zFMyrYPCDSds3roa1RPZOwVoQPYNb39asi9X
lodSen5XW1gs/ZpvVeuSR3QnCWhhpgZ6cKwnbUxN703vH1b9tyIhULqLmtJbC4gu
VIVZOxP/8aARxBY1K/SdvW90PqaxDiho8mNb6pLWnXyL3mIU2BvBNUwd6DGAHnr2
oQ494sVlgjJS79fa3AKADPP6VyEBKwPx3Tm8cUsnovIrkUeGFawoR7OLQaQUrQH2
AMrUYDarNd5SrTGuLFCq5apMKqlN6Za6moOgun/IonxifuujkkEMuAJjlg9z74Rp
ivqJiSiGPR0/bTxRnZUciv/sGoj60jXUPygjKcT/HWP3m58vAgMBAAGjga4wgasw
HQYDVR0OBBYEFOPQ0oDxiyUS6yYdJQQF07D+DJJpMB8GA1UdIwQYMBaAFK8vmFOB
L6WK7jg1ZX13aEzdLbCsMAkGA1UdEwQCMAAwCwYDVR0PBAQDAgWgMCMGA1UdEQQc
MBqCCWxvY2FsaG9zdIINY2FycGxhbm5lci5ybzAsBglghkgBhvhCAQ0EHxYdT3Bl
blNTTCBHZW5lcmF0ZWQgQ2VydGlmaWNhdGUwDQYJKoZIhvcNAQELBQADggIBAFJX
FTpzQ6GduhYCxPAkVBdFULvYcTEsPRrurdnVdpHnmn3448iF7mcC0Q7X1iP/mRi6
j/knxrDo7cL1+NEZgXEOpWZpFs3oPfNjIXAUiiPvgAPsAFQTDJ28WwlWVtVbi4F6
/L5HhYwS+UrA9VKzVH+T7R5b1PobPyaBUBKWOEBjWfyAuMLjLtApbkr1feFhsYZn
8hvoKLtATFoB9nY3qRatV6KVvl2qYHl9YMak3bS+aFYkSmx7jhFNlTTDf7/4fzSh
byFf2vY0lNdHYDk7p6ovXciFasCVP6GLBt82+A5Ff8MFnO0cwvnMit9ICgI4nI94
XbvWX8/8Hg3yb/X77DQaci+va4P6YVBgPYEpojaeH94VijaKpffgRHII1INyrDiq
CQ0tV3ZaHrLvmg39fbg6DOWgs+UFG3gF+8X8h9n5MOYUDW0MhTNyAuoT/LSy7oYD
qqiDJCyrs7O5Di0dVqFkGSPYaHYoovYUZZwqVYtXrGGlnjC9GZxgoNfChXrFMLPj
yU1THRglvjB/S6pJlJKlBVAW/XWqNDAjk558/6bTQYbnQqSbwOwQVwl/1AZwTrc7
hgmGUK9V31xGN8D3dU/0ZVQNAlz1XYFYk8zSXEvvlGIQamY+N/7Tj+fySpQG/IfG
zymFJha4R1RQAztrVgR92024D9ym+MwVRnXFfcGi
-----END CERTIFICATE-----
