Certificate:
    Data:
        Version: 3 (0x2)
        Serial Number: 3 (0x3)
    Signature Algorithm: sha256WithRSAEncryption
        Issuer: C=RO, ST=Bucharest, L=Bucharest, O=Carplanner SRL, OU=Server Research Department, CN=Test CA/emailAddress=carplannerroot@gmail.com
        Validity
            Not Before: Mar 16 23:13:34 2020 GMT
            Not After : Dec 11 23:13:34 2022 GMT
        Subject: C=RO, ST=Bucharest, L=Bucharest, O=Home SRL, CN=eusebiuebi.duckdns.org
        Subject Public Key Info:
            Public Key Algorithm: rsaEncryption
                Public-Key: (2048 bit)
                Modulus:
                    00:b4:a9:b8:f4:ea:7c:ac:65:16:f3:7f:cc:f5:6d:
                    bf:8b:82:b3:0b:19:32:05:5a:84:db:65:12:ee:3b:
                    7a:69:02:c4:ba:60:08:ab:e2:6e:ca:25:f2:a2:66:
                    be:74:d9:aa:11:d3:1f:99:98:f1:9c:0d:0f:76:3d:
                    15:af:15:bd:3e:f3:d2:f4:cb:a8:bf:94:13:71:b4:
                    a0:60:d9:d5:ec:54:25:ee:8f:8f:e3:16:fa:3a:84:
                    2e:10:4f:ac:4c:3e:a6:07:a3:57:d8:17:74:2e:c4:
                    00:ed:ba:e9:26:fa:0c:e2:b2:29:7a:32:d3:c2:c6:
                    35:ce:43:7b:92:4d:5c:62:6c:44:5f:28:00:48:78:
                    53:fd:eb:c0:f1:71:c5:ac:fb:d1:af:29:4b:a4:cb:
                    65:b4:15:a7:d0:76:26:7a:ba:72:a8:ee:2a:b7:e8:
                    80:a4:4e:f3:ae:99:00:21:9a:21:48:59:d7:4b:50:
                    ad:d0:76:66:a2:7c:fd:5a:8b:47:bc:99:3d:4f:c4:
                    dd:fa:75:7b:6b:b2:35:88:6a:e4:0f:a0:4a:29:39:
                    e6:b7:00:05:04:df:9a:9f:2e:a5:8c:e0:3d:16:9d:
                    3e:5b:ba:d8:7c:49:af:8b:ad:92:46:1a:94:62:8c:
                    ad:1f:ea:f5:28:3e:63:2c:4c:e9:b1:2e:aa:90:9c:
                    d4:f3
                Exponent: 65537 (0x10001)
        X509v3 extensions:
            X509v3 Subject Key Identifier: 
                84:9D:07:B6:A8:F5:A4:4B:A2:14:3C:5A:AE:D8:9F:D8:ED:28:58:43
            X509v3 Authority Key Identifier: 
                keyid:55:64:5E:F1:55:0F:6F:B2:17:10:0F:4C:75:A5:39:4E:5E:A2:E5:67

            X509v3 Basic Constraints: 
                CA:FALSE
            X509v3 Key Usage: 
                Digital Signature, Key Encipherment
            X509v3 Subject Alternative Name: 
                DNS:eusebiuebi.duckdns.org, DNS:localnetflix, DNS:192.168.100.150
            Netscape Comment: 
                OpenSSL Generated Certificate
    Signature Algorithm: sha256WithRSAEncryption
         ab:43:49:ca:2d:6a:de:73:1f:aa:b6:b2:79:78:7a:c5:21:6f:
         bb:6d:cb:f0:c7:39:93:43:23:86:96:25:0b:66:32:c8:9a:0f:
         c5:82:5b:c2:97:7f:e8:3c:9c:04:54:db:4b:36:f4:cf:a9:5d:
         f0:d4:c4:25:55:53:51:5d:26:6a:fa:84:04:37:6c:57:97:25:
         82:f1:f1:b3:7a:1b:02:21:79:06:5c:43:cf:a6:6b:0d:e5:2a:
         a5:c3:ab:42:b6:de:f6:d4:d3:14:f5:45:8d:65:12:95:de:a3:
         c3:9d:37:f9:b7:8e:5e:6d:5c:c7:1f:36:93:48:28:d0:ee:92:
         b5:16:28:f5:08:52:84:36:38:88:bc:9b:db:28:09:d8:5b:02:
         e5:c0:2b:f9:dc:9d:0d:11:e9:7e:09:4a:40:bd:f5:5f:70:2b:
         f3:28:45:92:6c:98:e2:4b:4d:22:ae:23:22:bd:6e:9c:48:1b:
         78:7d:0c:3d:06:ca:14:44:21:4e:79:c6:65:27:0c:55:99:4c:
         af:3a:ff:c9:57:fc:46:08:a0:4a:a0:11:ff:df:83:da:7d:cb:
         8d:1b:87:5c:4c:62:d1:8c:3e:37:cf:e1:b8:41:f1:57:5b:19:
         0f:95:fb:cf:1a:0a:77:75:f0:a6:9f:b8:14:be:85:c8:4b:43:
         3c:f8:9e:91:4f:9b:92:a4:5c:f4:3e:d8:7a:21:dc:00:26:ce:
         d9:c4:ec:32:e2:9e:c3:cd:30:5a:89:3b:5f:69:ae:d1:81:64:
         6b:01:2d:00:fd:8b:55:fa:f0:34:09:5a:d6:cf:9e:e3:1d:61:
         1d:de:2f:d4:5c:83:e6:03:1e:1e:fb:8a:f1:d2:a2:b4:bd:ea:
         fa:f0:20:7e:06:b3:5e:ca:f5:c8:ae:6d:7d:3f:58:67:59:e9:
         d3:f7:83:b0:03:d6:93:e3:b0:b4:86:f5:21:39:3a:fd:d6:d9:
         99:db:9c:13:b6:84:81:4c:6b:16:34:e6:f9:32:46:90:33:0f:
         22:96:9d:23:8e:53:0f:27:e2:f6:37:28:64:53:b7:4e:f0:c4:
         22:76:61:87:20:32:f9:2f:86:67:48:bb:5f:ae:8f:d6:51:c7:
         81:f7:91:5c:9a:38:49:92:2c:44:50:a6:be:44:83:1c:e0:85:
         5c:0b:ea:99:5e:64:e9:ae:57:90:6f:4b:d8:26:7f:97:c2:86:
         2b:43:c2:08:82:bc:81:7a:20:94:8d:ab:48:a3:73:ba:82:ad:
         ce:b0:ab:98:4b:99:91:7b:b9:c1:de:61:7a:65:a9:c6:2b:64:
         f7:4d:28:aa:2a:ef:6f:92:86:56:6f:14:50:ca:db:35:92:36:
         7f:d4:be:d8:df:19:1f:7e
-----BEGIN CERTIFICATE-----
MIIFXzCCA0egAwIBAgIBAzANBgkqhkiG9w0BAQsFADCBrjELMAkGA1UEBhMCUk8x
EjAQBgNVBAgMCUJ1Y2hhcmVzdDESMBAGA1UEBwwJQnVjaGFyZXN0MRcwFQYDVQQK
DA5DYXJwbGFubmVyIFNSTDEjMCEGA1UECwwaU2VydmVyIFJlc2VhcmNoIERlcGFy
dG1lbnQxEDAOBgNVBAMMB1Rlc3QgQ0ExJzAlBgkqhkiG9w0BCQEWGGNhcnBsYW5u
ZXJyb290QGdtYWlsLmNvbTAeFw0yMDAzMTYyMzEzMzRaFw0yMjEyMTEyMzEzMzRa
MGkxCzAJBgNVBAYTAlJPMRIwEAYDVQQIDAlCdWNoYXJlc3QxEjAQBgNVBAcMCUJ1
Y2hhcmVzdDERMA8GA1UECgwISG9tZSBTUkwxHzAdBgNVBAMMFmV1c2ViaXVlYmku
ZHVja2Rucy5vcmcwggEiMA0GCSqGSIb3DQEBAQUAA4IBDwAwggEKAoIBAQC0qbj0
6nysZRbzf8z1bb+LgrMLGTIFWoTbZRLuO3ppAsS6YAir4m7KJfKiZr502aoR0x+Z
mPGcDQ92PRWvFb0+89L0y6i/lBNxtKBg2dXsVCXuj4/jFvo6hC4QT6xMPqYHo1fY
F3QuxADtuukm+gzisil6MtPCxjXOQ3uSTVxibERfKABIeFP968DxccWs+9GvKUuk
y2W0FafQdiZ6unKo7iq36ICkTvOumQAhmiFIWddLUK3QdmaifP1ai0e8mT1PxN36
dXtrsjWIauQPoEopOea3AAUE35qfLqWM4D0WnT5buth8Sa+LrZJGGpRijK0f6vUo
PmMsTOmxLqqQnNTzAgMBAAGjgcswgcgwHQYDVR0OBBYEFISdB7ao9aRLohQ8Wq7Y
n9jtKFhDMB8GA1UdIwQYMBaAFFVkXvFVD2+yFxAPTHWlOU5eouVnMAkGA1UdEwQC
MAAwCwYDVR0PBAQDAgWgMEAGA1UdEQQ5MDeCFmV1c2ViaXVlYmkuZHVja2Rucy5v
cmeCDGxvY2FsbmV0ZmxpeIIPMTkyLjE2OC4xMDAuMTUwMCwGCWCGSAGG+EIBDQQf
Fh1PcGVuU1NMIEdlbmVyYXRlZCBDZXJ0aWZpY2F0ZTANBgkqhkiG9w0BAQsFAAOC
AgEAq0NJyi1q3nMfqrayeXh6xSFvu23L8Mc5k0MjhpYlC2YyyJoPxYJbwpd/6Dyc
BFTbSzb0z6ld8NTEJVVTUV0mavqEBDdsV5clgvHxs3obAiF5BlxDz6ZrDeUqpcOr
Qrbe9tTTFPVFjWUSld6jw503+beOXm1cxx82k0go0O6StRYo9QhShDY4iLyb2ygJ
2FsC5cAr+dydDRHpfglKQL31X3Ar8yhFkmyY4ktNIq4jIr1unEgbeH0MPQbKFEQh
TnnGZScMVZlMrzr/yVf8RgigSqAR/9+D2n3LjRuHXExi0Yw+N8/huEHxV1sZD5X7
zxoKd3Xwpp+4FL6FyEtDPPiekU+bkqRc9D7YeiHcACbO2cTsMuKew80wWok7X2mu
0YFkawEtAP2LVfrwNAla1s+e4x1hHd4v1FyD5gMeHvuK8dKitL3q+vAgfgazXsr1
yK5tfT9YZ1np0/eDsAPWk+OwtIb1ITk6/dbZmducE7aEgUxrFjTm+TJGkDMPIpad
I45TDyfi9jcoZFO3TvDEInZhhyAy+S+GZ0i7X66P1lHHgfeRXJo4SZIsRFCmvkSD
HOCFXAvqmV5k6a5XkG9L2CZ/l8KGK0PCCIK8gXoglI2rSKNzuoKtzrCrmEuZkXu5
wd5hemWpxitk900oqirvb5KGVm8UUMrbNZI2f9S+2N8ZH34=
-----END CERTIFICATE-----
