Certificate:
    Data:
        Version: 3 (0x2)
        Serial Number: 4 (0x4)
    Signature Algorithm: sha256WithRSAEncryption
        Issuer: C=RO, ST=Bucharest, L=Bucharest, O=Carplanner SRL, OU=Server Research Department, CN=Test CA/emailAddress=carplannerroot@gmail.com
        Validity
            Not Before: Mar 16 23:26:48 2020 GMT
            Not After : Mar 14 23:26:48 2030 GMT
        Subject: C=RO, ST=Bucharest, L=Bucharest, O=Home SRL, CN=eusebiuebi.duckdns.org
        Subject Public Key Info:
            Public Key Algorithm: rsaEncryption
                Public-Key: (2048 bit)
                Modulus:
                    00:d6:6b:ba:88:49:c9:e8:31:25:16:2e:7f:5e:3e:
                    06:b8:16:a6:79:54:ef:fb:3c:f9:e2:e0:04:71:bd:
                    7e:96:43:c2:ab:a6:db:81:ea:b1:e5:a2:07:59:b6:
                    a9:37:1a:b4:59:37:c0:1c:a9:12:37:3b:0a:0b:d5:
                    f8:ce:94:7f:4e:4c:16:1f:be:d1:f7:71:04:ad:90:
                    27:61:5a:00:3c:5d:30:ac:d6:0c:3c:0a:b7:36:aa:
                    04:ae:c3:1c:f0:9b:a1:e6:30:0b:c2:e7:aa:32:b9:
                    80:18:ca:af:49:fb:82:c2:19:31:57:e3:f2:5b:9d:
                    2f:78:66:96:a5:c2:1c:44:be:e0:4c:62:7b:9b:8d:
                    47:7b:e8:bf:81:d0:55:d8:34:e4:0b:3e:cf:92:c3:
                    8b:17:3d:98:2d:f0:67:6c:30:ad:3f:aa:8c:c3:9b:
                    2e:f5:65:86:f1:b6:f2:2a:e7:80:26:58:ed:f9:ac:
                    b5:83:2c:3b:0b:29:f8:72:7c:a8:98:6a:cc:e5:e9:
                    51:2e:a1:11:6c:57:03:c0:4c:a1:d1:17:fb:37:4f:
                    4a:da:1b:4e:2f:21:2e:9a:f2:6e:cb:37:e4:14:e0:
                    d2:6c:cb:a0:a8:68:25:a6:19:9d:14:17:4d:05:8e:
                    82:0b:49:36:d4:1e:f5:95:21:4d:bb:9e:9e:9d:f4:
                    0f:67
                Exponent: 65537 (0x10001)
        X509v3 extensions:
            X509v3 Subject Key Identifier: 
                A0:5B:0D:19:81:49:E8:9E:75:BF:0A:B9:D8:94:E0:AD:48:23:84:46
            X509v3 Authority Key Identifier: 
                keyid:55:64:5E:F1:55:0F:6F:B2:17:10:0F:4C:75:A5:39:4E:5E:A2:E5:67

            X509v3 Basic Constraints: 
                CA:FALSE
            X509v3 Key Usage: 
                Digital Signature, Key Encipherment
            X509v3 Subject Alternative Name: 
                DNS:eusebiuebi.duckdns.org, DNS:localnetflix, DNS:IP:192.168.100.150
            Netscape Comment: 
                OpenSSL Generated Certificate
    Signature Algorithm: sha256WithRSAEncryption
         a2:42:9e:1e:23:54:14:fc:ae:4e:53:2a:4c:ae:1a:74:f7:4a:
         27:8a:d9:64:76:be:9a:46:5f:02:3b:f5:27:16:ec:84:49:92:
         6e:af:90:37:3e:f5:32:40:30:8a:b4:64:d9:c6:06:e4:1e:07:
         81:1d:1a:e5:be:e0:1b:0c:41:54:b8:bd:87:42:34:b8:fa:57:
         4a:8c:07:09:6a:42:b3:00:de:d0:ed:d3:56:c0:e9:fa:77:3f:
         d2:f2:58:58:93:2e:3d:f3:e0:f2:c0:60:6d:03:61:c9:6a:ea:
         69:a8:a3:09:3c:ed:cc:36:8d:c9:a0:0d:bc:03:c4:06:f4:26:
         6e:52:68:1d:17:e8:6f:3a:d9:ab:8e:61:12:59:a2:ac:e8:02:
         ba:59:53:92:af:25:c0:5a:14:96:52:3d:ae:9f:eb:e7:37:7d:
         48:1f:40:84:bb:96:53:99:a8:7d:11:6f:81:17:88:6b:83:f5:
         ea:2c:05:94:fb:e9:6c:7c:d1:29:4b:7a:ba:24:d4:79:4c:2c:
         3a:df:4b:68:33:62:88:2b:86:52:16:34:4e:a6:d4:b7:d3:b4:
         bd:92:2b:66:55:11:42:e7:dd:03:49:d4:ef:24:2f:79:05:9a:
         1c:04:c9:ae:61:5c:05:be:2b:10:c7:d4:86:e3:b4:0a:2b:21:
         1d:16:b7:7e:fb:69:7b:c2:ca:db:ad:d8:c3:68:90:32:19:98:
         9d:3c:a0:71:bb:f8:af:e6:33:f8:de:8c:f6:55:4a:41:9b:6a:
         23:18:96:b6:28:7b:c5:72:8c:59:e0:08:fc:b4:bb:a1:0d:1d:
         c7:c2:4f:89:42:1c:a6:0a:7c:b5:05:84:3e:b4:93:6c:e6:31:
         50:7d:de:a8:cb:f6:e4:94:6c:aa:0f:f4:00:f6:97:d2:f4:3d:
         30:1c:cd:9f:58:83:11:5b:62:be:e8:72:37:50:a4:7b:21:fe:
         2d:37:3c:99:f4:0f:e9:58:65:37:48:51:08:23:69:3f:5d:44:
         4c:e2:d6:49:0e:46:12:52:e7:3f:07:e6:d5:1f:6d:9a:d1:05:
         a0:46:85:7e:79:12:c0:ad:51:e5:9f:d6:ba:3c:0f:a6:9a:f9:
         f7:2f:f3:74:b4:8d:73:7c:2f:bf:5f:e5:dd:2f:fe:ef:0c:6e:
         4a:0f:4d:18:70:ac:2c:43:1d:ab:7b:13:58:4e:e3:a7:5d:0c:
         a0:f1:d4:16:ec:94:16:15:be:aa:d8:07:ad:7b:ae:a0:c2:0a:
         3d:85:46:20:05:89:3e:ed:d5:a6:97:0a:7d:3e:f4:f1:94:f5:
         3c:50:78:9d:81:5e:4e:ea:29:be:11:6f:bc:1b:c7:e2:95:cf:
         74:d9:21:2a:12:06:d2:4b
-----BEGIN CERTIFICATE-----
MIIFYjCCA0qgAwIBAgIBBDANBgkqhkiG9w0BAQsFADCBrjELMAkGA1UEBhMCUk8x
EjAQBgNVBAgMCUJ1Y2hhcmVzdDESMBAGA1UEBwwJQnVjaGFyZXN0MRcwFQYDVQQK
DA5DYXJwbGFubmVyIFNSTDEjMCEGA1UECwwaU2VydmVyIFJlc2VhcmNoIERlcGFy
dG1lbnQxEDAOBgNVBAMMB1Rlc3QgQ0ExJzAlBgkqhkiG9w0BCQEWGGNhcnBsYW5u
ZXJyb290QGdtYWlsLmNvbTAeFw0yMDAzMTYyMzI2NDhaFw0zMDAzMTQyMzI2NDha
MGkxCzAJBgNVBAYTAlJPMRIwEAYDVQQIDAlCdWNoYXJlc3QxEjAQBgNVBAcMCUJ1
Y2hhcmVzdDERMA8GA1UECgwISG9tZSBTUkwxHzAdBgNVBAMMFmV1c2ViaXVlYmku
ZHVja2Rucy5vcmcwggEiMA0GCSqGSIb3DQEBAQUAA4IBDwAwggEKAoIBAQDWa7qI
ScnoMSUWLn9ePga4FqZ5VO/7PPni4ARxvX6WQ8KrptuB6rHlogdZtqk3GrRZN8Ac
qRI3OwoL1fjOlH9OTBYfvtH3cQStkCdhWgA8XTCs1gw8Crc2qgSuwxzwm6HmMAvC
56oyuYAYyq9J+4LCGTFX4/JbnS94ZpalwhxEvuBMYnubjUd76L+B0FXYNOQLPs+S
w4sXPZgt8GdsMK0/qozDmy71ZYbxtvIq54AmWO35rLWDLDsLKfhyfKiYaszl6VEu
oRFsVwPATKHRF/s3T0raG04vIS6a8m7LN+QU4NJsy6CoaCWmGZ0UF00FjoILSTbU
HvWVIU27np6d9A9nAgMBAAGjgc4wgcswHQYDVR0OBBYEFKBbDRmBSeiedb8KudiU
4K1II4RGMB8GA1UdIwQYMBaAFFVkXvFVD2+yFxAPTHWlOU5eouVnMAkGA1UdEwQC
MAAwCwYDVR0PBAQDAgWgMEMGA1UdEQQ8MDqCFmV1c2ViaXVlYmkuZHVja2Rucy5v
cmeCDGxvY2FsbmV0ZmxpeIISSVA6MTkyLjE2OC4xMDAuMTUwMCwGCWCGSAGG+EIB
DQQfFh1PcGVuU1NMIEdlbmVyYXRlZCBDZXJ0aWZpY2F0ZTANBgkqhkiG9w0BAQsF
AAOCAgEAokKeHiNUFPyuTlMqTK4adPdKJ4rZZHa+mkZfAjv1JxbshEmSbq+QNz71
MkAwirRk2cYG5B4HgR0a5b7gGwxBVLi9h0I0uPpXSowHCWpCswDe0O3TVsDp+nc/
0vJYWJMuPfPg8sBgbQNhyWrqaaijCTztzDaNyaANvAPEBvQmblJoHRfobzrZq45h
ElmirOgCullTkq8lwFoUllI9rp/r5zd9SB9AhLuWU5mofRFvgReIa4P16iwFlPvp
bHzRKUt6uiTUeUwsOt9LaDNiiCuGUhY0TqbUt9O0vZIrZlURQufdA0nU7yQveQWa
HATJrmFcBb4rEMfUhuO0CishHRa3fvtpe8LK263Yw2iQMhmYnTygcbv4r+Yz+N6M
9lVKQZtqIxiWtih7xXKMWeAI/LS7oQ0dx8JPiUIcpgp8tQWEPrSTbOYxUH3eqMv2
5JRsqg/0APaX0vQ9MBzNn1iDEVtivuhyN1CkeyH+LTc8mfQP6VhlN0hRCCNpP11E
TOLWSQ5GElLnPwfm1R9tmtEFoEaFfnkSwK1R5Z/WujwPppr59y/zdLSNc3wvv1/l
3S/+7wxuSg9NGHCsLEMdq3sTWE7jp10MoPHUFuyUFhW+qtgHrXuuoMIKPYVGIAWJ
Pu3VppcKfT708ZT1PFB4nYFeTuopvhFvvBvH4pXPdNkhKhIG0ks=
-----END CERTIFICATE-----
